; Function Attrs: mustprogress nofree norecurse nosync nounwind willreturn memory(read, inaccessiblemem: none) uwtable
define noundef i64 @_ZNK6casadi18DaeBuilderInternal5n_memEv(ptr noundef nonnull readonly align 8 captures(none) dereferenceable(1017) %0) local_unnamed_addr #14 align 2 {
  %2 = getelementptr inbounds nuw i8, ptr %0, i64 552
  %3 = load ptr, ptr %2, align 8, !tbaa !189
  %4 = getelementptr inbounds nuw i8, ptr %0, i64 560
  %5 = load ptr, ptr %4, align 8, !tbaa !189
  %.not8 = icmp eq ptr %3, %5
  br i1 %.not8, label %._crit_edge, label %.lr.ph

._crit_edge:                                      ; preds = %.lr.ph, %1
  %.0.lcssa = phi i64 [ 0, %1 ], [ %9, %.lr.ph ]
  ret i64 %.0.lcssa

.lr.ph:                                           ; preds = %1, %.lr.ph
  %.010 = phi i64 [ %9, %.lr.ph ], [ 0, %1 ]
  %.sroa.05.09 = phi ptr [ %10, %.lr.ph ], [ %3, %1 ]
  %6 = load ptr, ptr %.sroa.05.09, align 8, !tbaa !149
  %7 = getelementptr inbounds nuw i8, ptr %6, i64 64
  %8 = load i64, ptr %7, align 8, !tbaa !28
  %9 = add i64 %8, %.010
  %10 = getelementptr inbounds nuw i8, ptr %.sroa.05.09, i64 8
  %.not = icmp eq ptr %10, %5
  br i1 %.not, label %._crit_edge, label %.lr.ph
}